; ModuleID = '19/416.c'
source_filename = "19/416.c"
target datalayout = "e-m:e-p270:32:32-p271:32:32-p272:64:64-i64:64-f80:128-n8:16:32:64-S128"
target triple = "x86_64-pc-linux-gnu"

@.str = private unnamed_addr constant [6 x i8] c"%s\0A%s\00", align 1
@.str.1 = private unnamed_addr constant [4 x i8] c"%s \00", align 1
@.str.2 = private unnamed_addr constant [3 x i8] c"%s\00", align 1

; Function Attrs: noinline nounwind uwtable
define dso_local void @main() #0 {
  %1 = alloca [100 x i8], align 16
  %2 = alloca [100 x [100 x i8]], align 16
  %3 = alloca [100 x i8], align 16
  %4 = alloca [100 x i8], align 16
  %5 = alloca [100 x i8*], align 16
  %6 = alloca i32, align 4
  %7 = alloca i32, align 4
  %8 = alloca i32, align 4
  %9 = alloca i32, align 4
  %10 = alloca i32, align 4
  %11 = alloca i32, align 4
  store i32 1, i32* %11, align 4
  %12 = getelementptr inbounds [100 x i8], [100 x i8]* %1, i64 0, i64 0
  %13 = call i32 (i8*, ...) bitcast (i32 (...)* @gets to i32 (i8*, ...)*)(i8* %12)
  %14 = getelementptr inbounds [100 x i8], [100 x i8]* %1, i64 0, i64 0
  %15 = call i64 @strlen(i8* %14) #3
  %16 = trunc i64 %15 to i32
  store i32 %16, i32* %10, align 4
  %17 = getelementptr inbounds [100 x i8], [100 x i8]* %3, i64 0, i64 0
  %18 = getelementptr inbounds [100 x i8], [100 x i8]* %4, i64 0, i64 0
  %19 = call i32 (i8*, ...) @__isoc99_scanf(i8* getelementptr inbounds ([6 x i8], [6 x i8]* @.str, i64 0, i64 0), i8* %17, i8* %18)
  store i32 0, i32* %6, align 4
  br label %20

20:                                               ; preds = %65, %0
  %21 = load i32, i32* %8, align 4
  %22 = load i32, i32* %10, align 4
  %23 = sub nsw i32 %22, 1
  %24 = icmp sle i32 %21, %23
  br i1 %24, label %25, label %70

25:                                               ; preds = %20
  store i32 0, i32* %7, align 4
  br label %26

26:                                               ; preds = %59, %25
  %27 = load i32, i32* %8, align 4
  %28 = load i32, i32* %10, align 4
  %29 = sub nsw i32 %28, 1
  %30 = icmp sle i32 %27, %29
  br i1 %30, label %31, label %64

31:                                               ; preds = %26
  %32 = load i32, i32* %8, align 4
  %33 = sext i32 %32 to i64
  %34 = getelementptr inbounds [100 x i8], [100 x i8]* %1, i64 0, i64 %33
  %35 = load i8, i8* %34, align 1
  %36 = sext i8 %35 to i32
  %37 = icmp ne i32 %36, 32
  br i1 %37, label %38, label %49

38:                                               ; preds = %31
  %39 = load i32, i32* %8, align 4
  %40 = sext i32 %39 to i64
  %41 = getelementptr inbounds [100 x i8], [100 x i8]* %1, i64 0, i64 %40
  %42 = load i8, i8* %41, align 1
  %43 = load i32, i32* %6, align 4
  %44 = sext i32 %43 to i64
  %45 = getelementptr inbounds [100 x [100 x i8]], [100 x [100 x i8]]* %2, i64 0, i64 %44
  %46 = load i32, i32* %7, align 4
  %47 = sext i32 %46 to i64
  %48 = getelementptr inbounds [100 x i8], [100 x i8]* %45, i64 0, i64 %47
  store i8 %42, i8* %48, align 1
  br label %58

49:                                               ; preds = %31
  %50 = load i32, i32* %6, align 4
  %51 = sext i32 %50 to i64
  %52 = getelementptr inbounds [100 x [100 x i8]], [100 x [100 x i8]]* %2, i64 0, i64 %51
  %53 = load i32, i32* %7, align 4
  %54 = sext i32 %53 to i64
  %55 = getelementptr inbounds [100 x i8], [100 x i8]* %52, i64 0, i64 %54
  store i8 0, i8* %55, align 1
  %56 = load i32, i32* %11, align 4
  %57 = add nsw i32 %56, 1
  store i32 %57, i32* %11, align 4
  br label %64

58:                                               ; preds = %38
  br label %59

59:                                               ; preds = %58
  %60 = load i32, i32* %7, align 4
  %61 = add nsw i32 %60, 1
  store i32 %61, i32* %7, align 4
  %62 = load i32, i32* %8, align 4
  %63 = add nsw i32 %62, 1
  store i32 %63, i32* %8, align 4
  br label %26

64:                                               ; preds = %49, %26
  br label %65

65:                                               ; preds = %64
  %66 = load i32, i32* %6, align 4
  %67 = add nsw i32 %66, 1
  store i32 %67, i32* %6, align 4
  %68 = load i32, i32* %8, align 4
  %69 = add nsw i32 %68, 1
  store i32 %69, i32* %8, align 4
  br label %20

70:                                               ; preds = %20
  %71 = load i32, i32* %11, align 4
  %72 = sub nsw i32 %71, 1
  %73 = sext i32 %72 to i64
  %74 = getelementptr inbounds [100 x [100 x i8]], [100 x [100 x i8]]* %2, i64 0, i64 %73
  %75 = load i32, i32* %7, align 4
  %76 = add nsw i32 %75, 1
  %77 = sext i32 %76 to i64
  %78 = getelementptr inbounds [100 x i8], [100 x i8]* %74, i64 0, i64 %77
  store i8 0, i8* %78, align 1
  store i32 0, i32* %6, align 4
  br label %79

79:                                               ; preds = %91, %70
  %80 = load i32, i32* %6, align 4
  %81 = load i32, i32* %11, align 4
  %82 = icmp slt i32 %80, %81
  br i1 %82, label %83, label %94

83:                                               ; preds = %79
  %84 = load i32, i32* %6, align 4
  %85 = sext i32 %84 to i64
  %86 = getelementptr inbounds [100 x [100 x i8]], [100 x [100 x i8]]* %2, i64 0, i64 %85
  %87 = getelementptr inbounds [100 x i8], [100 x i8]* %86, i64 0, i64 0
  %88 = load i32, i32* %6, align 4
  %89 = sext i32 %88 to i64
  %90 = getelementptr inbounds [100 x i8*], [100 x i8*]* %5, i64 0, i64 %89
  store i8* %87, i8** %90, align 8
  br label %91

91:                                               ; preds = %83
  %92 = load i32, i32* %6, align 4
  %93 = add nsw i32 %92, 1
  store i32 %93, i32* %6, align 4
  br label %79

94:                                               ; preds = %79
  store i32 0, i32* %6, align 4
  br label %95

95:                                               ; preds = %113, %94
  %96 = load i32, i32* %6, align 4
  %97 = load i32, i32* %11, align 4
  %98 = icmp slt i32 %96, %97
  br i1 %98, label %99, label %116

99:                                               ; preds = %95
  %100 = load i32, i32* %6, align 4
  %101 = sext i32 %100 to i64
  %102 = getelementptr inbounds [100 x i8*], [100 x i8*]* %5, i64 0, i64 %101
  %103 = load i8*, i8** %102, align 8
  %104 = getelementptr inbounds [100 x i8], [100 x i8]* %3, i64 0, i64 0
  %105 = call i32 @strcmp(i8* %103, i8* %104) #3
  %106 = icmp eq i32 %105, 0
  br i1 %106, label %107, label %112

107:                                              ; preds = %99
  %108 = getelementptr inbounds [100 x i8], [100 x i8]* %4, i64 0, i64 0
  %109 = load i32, i32* %6, align 4
  %110 = sext i32 %109 to i64
  %111 = getelementptr inbounds [100 x i8*], [100 x i8*]* %5, i64 0, i64 %110
  store i8* %108, i8** %111, align 8
  br label %112

112:                                              ; preds = %107, %99
  br label %113

113:                                              ; preds = %112
  %114 = load i32, i32* %6, align 4
  %115 = add nsw i32 %114, 1
  store i32 %115, i32* %6, align 4
  br label %95

116:                                              ; preds = %95
  store i32 0, i32* %6, align 4
  br label %117

117:                                              ; preds = %128, %116
  %118 = load i32, i32* %6, align 4
  %119 = load i32, i32* %11, align 4
  %120 = sub nsw i32 %119, 1
  %121 = icmp slt i32 %118, %120
  br i1 %121, label %122, label %131

122:                                              ; preds = %117
  %123 = load i32, i32* %6, align 4
  %124 = sext i32 %123 to i64
  %125 = getelementptr inbounds [100 x i8*], [100 x i8*]* %5, i64 0, i64 %124
  %126 = load i8*, i8** %125, align 8
  %127 = call i32 (i8*, ...) @printf(i8* getelementptr inbounds ([4 x i8], [4 x i8]* @.str.1, i64 0, i64 0), i8* %126)
  br label %128

128:                                              ; preds = %122
  %129 = load i32, i32* %6, align 4
  %130 = add nsw i32 %129, 1
  store i32 %130, i32* %6, align 4
  br label %117

131:                                              ; preds = %117
  %132 = load i32, i32* %11, align 4
  %133 = sub nsw i32 %132, 1
  %134 = sext i32 %133 to i64
  %135 = getelementptr inbounds [100 x i8*], [100 x i8*]* %5, i64 0, i64 %134
  %136 = load i8*, i8** %135, align 8
  %137 = call i32 (i8*, ...) @printf(i8* getelementptr inbounds ([3 x i8], [3 x i8]* @.str.2, i64 0, i64 0), i8* %136)
  ret void
}

declare dso_local i32 @gets(...) #1

; Function Attrs: nounwind readonly
declare dso_local i64 @strlen(i8*) #2

declare dso_local i32 @__isoc99_scanf(i8*, ...) #1

; Function Attrs: nounwind readonly
declare dso_local i32 @strcmp(i8*, i8*) #2

declare dso_local i32 @printf(i8*, ...) #1


!llvm.module.flags = !{!0}
!llvm.ident = !{!1}

!0 = !{i32 1, !"wchar_size", i32 4}
!1 = !{!"clang version 10.0.0-4ubuntu1 "}
